target datalayout = "e-m:e-p270:32:32-p271:32:32-p272:64:64-i64:64-i128:128-f80:128-n8:16:32:64-S128"
target triple = "x86_64-pc-linux-gnu"

%struct._object = type { %union.anon, ptr }
%union.anon = type { i64 }
%struct.anon = type { i32, i32 }
%struct._longobject = type { %struct._object, %struct._PyLongValue }
%struct._PyLongValue = type { i64, [1 x i32] }
%struct.typevarobject = type { %struct._object, ptr, ptr, ptr, ptr, ptr, ptr, ptr, i8, i8, i8 }

@_Py_NoDefaultStruct = hidden global { { %struct.anon }, ptr } { { %struct.anon } { %struct.anon { i32 -1073741824, i32 128 } }, ptr @_PyNoDefault_Type }, align 8
@_Py_TrueStruct = external global %struct._longobject, align 8
@_Py_FalseStruct = external global %struct._longobject, align 8

; Function Attrs: nounwind uwtable
define internal ptr @typevar_has_default_impl(ptr noundef %0) #0 {
  %2 = alloca ptr, align 8
  %3 = alloca ptr, align 8
  store ptr %0, ptr %3, align 8, !tbaa !30
  %4 = load ptr, ptr %3, align 8, !tbaa !30
  %5 = getelementptr inbounds nuw %struct.typevarobject, ptr %4, i32 0, i32 7
  %6 = load ptr, ptr %5, align 8, !tbaa !121
  %7 = icmp ne ptr %6, null
  br i1 %7, label %18, label %8

8:                                                ; preds = %1
  %9 = load ptr, ptr %3, align 8, !tbaa !30
  %10 = getelementptr inbounds nuw %struct.typevarobject, ptr %9, i32 0, i32 6
  %11 = load ptr, ptr %10, align 8, !tbaa !120
  %12 = icmp ne ptr %11, @_Py_NoDefaultStruct
  br i1 %12, label %13, label %19

13:                                               ; preds = %8
  %14 = load ptr, ptr %3, align 8, !tbaa !30
  %15 = getelementptr inbounds nuw %struct.typevarobject, ptr %14, i32 0, i32 6
  %16 = load ptr, ptr %15, align 8, !tbaa !120
  %17 = icmp ne ptr %16, null
  br i1 %17, label %18, label %19

18:                                               ; preds = %13, %1
  store ptr @_Py_TrueStruct, ptr %2, align 8
  br label %20

19:                                               ; preds = %13, %8
  store ptr @_Py_FalseStruct, ptr %2, align 8
  br label %20

20:                                               ; preds = %19, %18
  %21 = load ptr, ptr %2, align 8
  ret ptr %21
}

; Function Attrs: nounwind uwtable
define internal ptr @typevar_has_default(ptr noundef %0, ptr noundef %1) #0 {
  %3 = alloca ptr, align 8
  %4 = alloca ptr, align 8
  store ptr %0, ptr %3, align 8, !tbaa !4
  store ptr %1, ptr %4, align 8, !tbaa !4
  %5 = load ptr, ptr %3, align 8, !tbaa !4
  %6 = call ptr @typevar_has_default_impl(ptr noundef %5)
  ret ptr %6
}